target datalayout = "e-m:e-p270:32:32-p271:32:32-p272:64:64-i64:64-i128:128-f80:128-n8:16:32:64-S128"
target triple = "x86_64-pc-linux-gnu"

%struct.H5HF_t = type { ptr, ptr }
%struct.H5HF_hdr_t = type { %struct.H5C_cache_entry_t, i32, i32, i8, i8, i8, i8, %struct.H5HF_dtable_t, i64, i64, i32, i64, i64, %struct.H5O_pline_t, i64, i32, i64, i64, i64, i64, i64, i64, i64, i64, i64, i64, i64, i32, ptr, i64, i8, i8, i8, ptr, i32, ptr, %struct.H5HF_block_iter_t, ptr, i64, i8, i8, i64, i8, i8, i8, i8 }
%struct.H5C_cache_entry_t = type { ptr, i64, i64, ptr, i8, ptr, i8, i8, i8, i8, i32, i8, i8, i8, i8, i8, i32, ptr, i32, i32, i32, i32, i32, i8, i8, ptr, ptr, ptr, ptr, ptr, ptr, i8, i32, i8, i64, ptr, i64, i64, i32, i8, i32, i32, i8, ptr, ptr, ptr }
%struct.H5HF_dtable_t = type { %struct.H5HF_dtable_cparam_t, i64, i32, i32, i32, i32, i32, i32, i32, i64, ptr, ptr, ptr, ptr }
%struct.H5HF_dtable_cparam_t = type { i32, i64, i64, i32, i32 }
%struct.H5O_pline_t = type { %struct.H5O_shared_t, i32, i64, i64, ptr }
%struct.H5O_shared_t = type { i32, ptr, i32, %union.anon }
%union.anon = type { %struct.H5O_mesg_loc_t }
%struct.H5O_mesg_loc_t = type { i32, i64 }
%struct.H5HF_block_iter_t = type { i8, ptr }
%struct.H5HF_create_t = type { %struct.H5HF_dtable_cparam_t, i8, i32, i16, %struct.H5O_pline_t }

@H5HF_init_g = external global i8, align 1
@H5_libterm_g = external global i8, align 1

; Function Attrs: nounwind uwtable
define i32 @H5HF_get_cparam_test(ptr noundef %0, ptr noundef %1) #0 {
  %3 = alloca ptr, align 8
  %4 = alloca ptr, align 8
  store ptr %0, ptr %3, align 8, !tbaa !3
  store ptr %1, ptr %4, align 8, !tbaa !8
  %5 = load i8, ptr @H5HF_init_g, align 1, !tbaa !10, !range !12, !noundef !13
  %6 = trunc i8 %5 to i1
  br i1 %6, label %11, label %7

7:                                                ; preds = %2
  %8 = load i8, ptr @H5_libterm_g, align 1, !tbaa !10, !range !12, !noundef !13
  %9 = trunc i8 %8 to i1
  %10 = xor i1 %9, true
  br label %11

11:                                               ; preds = %7, %2
  %12 = phi i1 [ true, %2 ], [ %10, %7 ]
  %13 = xor i1 %12, true
  %14 = xor i1 %13, true
  %15 = zext i1 %14 to i32
  %16 = sext i32 %15 to i64
  %17 = call i64 @llvm.expect.i64(i64 %16, i64 1)
  %18 = icmp ne i64 %17, 0
  br i1 %18, label %19, label %101

19:                                               ; preds = %11
  %20 = load ptr, ptr %3, align 8, !tbaa !3
  %21 = getelementptr inbounds nuw %struct.H5HF_t, ptr %20, i32 0, i32 0
  %22 = load ptr, ptr %21, align 8, !tbaa !14
  %23 = getelementptr inbounds nuw %struct.H5HF_hdr_t, ptr %22, i32 0, i32 1
  %24 = load i32, ptr %23, align 8, !tbaa !18
  %25 = load ptr, ptr %3, align 8, !tbaa !3
  %26 = getelementptr inbounds nuw %struct.H5HF_t, ptr %25, i32 0, i32 0
  %27 = load ptr, ptr %26, align 8, !tbaa !14
  %28 = getelementptr inbounds nuw %struct.H5HF_hdr_t, ptr %27, i32 0, i32 43
  %29 = load i8, ptr %28, align 1, !tbaa !39
  %30 = zext i8 %29 to i32
  %31 = add nsw i32 1, %30
  %32 = load ptr, ptr %3, align 8, !tbaa !3
  %33 = getelementptr inbounds nuw %struct.H5HF_t, ptr %32, i32 0, i32 0
  %34 = load ptr, ptr %33, align 8, !tbaa !14
  %35 = getelementptr inbounds nuw %struct.H5HF_hdr_t, ptr %34, i32 0, i32 44
  %36 = load i8, ptr %35, align 2, !tbaa !40
  %37 = zext i8 %36 to i32
  %38 = add nsw i32 %31, %37
  %39 = icmp eq i32 %24, %38
  br i1 %39, label %40, label %43

40:                                               ; preds = %19
  %41 = load ptr, ptr %4, align 8, !tbaa !8
  %42 = getelementptr inbounds nuw %struct.H5HF_create_t, ptr %41, i32 0, i32 3
  store i16 0, ptr %42, align 8, !tbaa !41
  br label %79

43:                                               ; preds = %19
  %44 = load ptr, ptr %3, align 8, !tbaa !3
  %45 = getelementptr inbounds nuw %struct.H5HF_t, ptr %44, i32 0, i32 0
  %46 = load ptr, ptr %45, align 8, !tbaa !14
  %47 = getelementptr inbounds nuw %struct.H5HF_hdr_t, ptr %46, i32 0, i32 1
  %48 = load i32, ptr %47, align 8, !tbaa !18
  %49 = load ptr, ptr %3, align 8, !tbaa !3
  %50 = getelementptr inbounds nuw %struct.H5HF_t, ptr %49, i32 0, i32 0
  %51 = load ptr, ptr %50, align 8, !tbaa !14
  %52 = getelementptr inbounds nuw %struct.H5HF_hdr_t, ptr %51, i32 0, i32 31
  %53 = load i8, ptr %52, align 1, !tbaa !44
  %54 = zext i8 %53 to i32
  %55 = add nsw i32 1, %54
  %56 = load ptr, ptr %3, align 8, !tbaa !3
  %57 = getelementptr inbounds nuw %struct.H5HF_t, ptr %56, i32 0, i32 0
  %58 = load ptr, ptr %57, align 8, !tbaa !14
  %59 = getelementptr inbounds nuw %struct.H5HF_hdr_t, ptr %58, i32 0, i32 32
  %60 = load i8, ptr %59, align 2, !tbaa !45
  %61 = zext i8 %60 to i32
  %62 = add nsw i32 %55, %61
  %63 = icmp eq i32 %48, %62
  br i1 %63, label %64, label %67

64:                                               ; preds = %43
  %65 = load ptr, ptr %4, align 8, !tbaa !8
  %66 = getelementptr inbounds nuw %struct.H5HF_create_t, ptr %65, i32 0, i32 3
  store i16 1, ptr %66, align 8, !tbaa !41
  br label %78

67:                                               ; preds = %43
  br label %68

68:                                               ; preds = %67
  %69 = load ptr, ptr %3, align 8, !tbaa !3
  %70 = getelementptr inbounds nuw %struct.H5HF_t, ptr %69, i32 0, i32 0
  %71 = load ptr, ptr %70, align 8, !tbaa !14
  %72 = getelementptr inbounds nuw %struct.H5HF_hdr_t, ptr %71, i32 0, i32 1
  %73 = load i32, ptr %72, align 8, !tbaa !18
  %74 = trunc i32 %73 to i16
  %75 = load ptr, ptr %4, align 8, !tbaa !8
  %76 = getelementptr inbounds nuw %struct.H5HF_create_t, ptr %75, i32 0, i32 3
  store i16 %74, ptr %76, align 8, !tbaa !41
  br label %77

77:                                               ; preds = %68
  br label %78

78:                                               ; preds = %77, %64
  br label %79

79:                                               ; preds = %78, %40
  %80 = load ptr, ptr %3, align 8, !tbaa !3
  %81 = getelementptr inbounds nuw %struct.H5HF_t, ptr %80, i32 0, i32 0
  %82 = load ptr, ptr %81, align 8, !tbaa !14
  %83 = getelementptr inbounds nuw %struct.H5HF_hdr_t, ptr %82, i32 0, i32 10
  %84 = load i32, ptr %83, align 8, !tbaa !46
  %85 = load ptr, ptr %4, align 8, !tbaa !8
  %86 = getelementptr inbounds nuw %struct.H5HF_create_t, ptr %85, i32 0, i32 2
  store i32 %84, ptr %86, align 4, !tbaa !47
  %87 = load ptr, ptr %4, align 8, !tbaa !8
  %88 = getelementptr inbounds nuw %struct.H5HF_create_t, ptr %87, i32 0, i32 0
  %89 = load ptr, ptr %3, align 8, !tbaa !3
  %90 = getelementptr inbounds nuw %struct.H5HF_t, ptr %89, i32 0, i32 0
  %91 = load ptr, ptr %90, align 8, !tbaa !14
  %92 = getelementptr inbounds nuw %struct.H5HF_hdr_t, ptr %91, i32 0, i32 7
  %93 = getelementptr inbounds nuw %struct.H5HF_dtable_t, ptr %92, i32 0, i32 0
  call void @llvm.memcpy.p0.p0.i64(ptr align 8 %88, ptr align 8 %93, i64 32, i1 false)
  %94 = load ptr, ptr %3, align 8, !tbaa !3
  %95 = getelementptr inbounds nuw %struct.H5HF_t, ptr %94, i32 0, i32 0
  %96 = load ptr, ptr %95, align 8, !tbaa !14
  %97 = getelementptr inbounds nuw %struct.H5HF_hdr_t, ptr %96, i32 0, i32 13
  %98 = load ptr, ptr %4, align 8, !tbaa !8
  %99 = getelementptr inbounds nuw %struct.H5HF_create_t, ptr %98, i32 0, i32 4
  %100 = call ptr @H5O_msg_copy(i32 noundef 11, ptr noundef %97, ptr noundef %99)
  br label %101

101:                                              ; preds = %79, %11
  ret i32 0
}