; Function Attrs: nounwind uwtable
define noundef i32 @H5HF_get_cparam_test(ptr noundef readonly captures(none) %0, ptr noundef %1) local_unnamed_addr #0 {
  %3 = load i8, ptr @H5HF_init_g, align 1, !tbaa !3, !range !7, !noundef !8
  %4 = trunc nuw i8 %3 to i1
  %5 = load i8, ptr @H5_libterm_g, align 1, !range !7
  %6 = trunc nuw i8 %5 to i1
  %7 = xor i1 %6, true
  %8 = select i1 %4, i1 true, i1 %7
  br i1 %8, label %9, label %43, !prof !9

9:                                                ; preds = %2
  %10 = load ptr, ptr %0, align 8, !tbaa !10
  %11 = getelementptr inbounds nuw i8, ptr %10, i64 248
  %12 = load i32, ptr %11, align 8, !tbaa !15
  %13 = getelementptr inbounds nuw i8, ptr %10, i64 697
  %14 = load i8, ptr %13, align 1, !tbaa !36
  %15 = zext i8 %14 to i32
  %16 = add nuw nsw i32 %15, 1
  %17 = getelementptr inbounds nuw i8, ptr %10, i64 698
  %18 = load i8, ptr %17, align 2, !tbaa !37
  %19 = zext i8 %18 to i32
  %20 = add nuw nsw i32 %16, %19
  %21 = icmp eq i32 %12, %20
  br i1 %21, label %33, label %22

22:                                               ; preds = %9
  %23 = getelementptr inbounds nuw i8, ptr %10, i64 617
  %24 = load i8, ptr %23, align 1, !tbaa !38
  %25 = zext i8 %24 to i32
  %26 = add nuw nsw i32 %25, 1
  %27 = getelementptr inbounds nuw i8, ptr %10, i64 618
  %28 = load i8, ptr %27, align 2, !tbaa !39
  %29 = zext i8 %28 to i32
  %30 = add nuw nsw i32 %26, %29
  %31 = icmp eq i32 %12, %30
  %32 = trunc i32 %12 to i16
  %spec.select = select i1 %31, i16 1, i16 %32
  br label %33

33:                                               ; preds = %22, %9
  %.sink = phi i16 [ 0, %9 ], [ %spec.select, %22 ]
  %34 = getelementptr inbounds nuw i8, ptr %1, i64 40
  store i16 %.sink, ptr %34, align 8, !tbaa !40
  %35 = getelementptr inbounds nuw i8, ptr %10, i64 392
  %36 = load i32, ptr %35, align 8, !tbaa !43
  %37 = getelementptr inbounds nuw i8, ptr %1, i64 36
  store i32 %36, ptr %37, align 4, !tbaa !44
  %38 = getelementptr inbounds nuw i8, ptr %10, i64 264
  tail call void @llvm.memcpy.p0.p0.i64(ptr noundef nonnull align 8 dereferenceable(32) %1, ptr noundef nonnull align 8 dereferenceable(32) %38, i64 32, i1 false)
  %39 = load ptr, ptr %0, align 8, !tbaa !10
  %40 = getelementptr inbounds nuw i8, ptr %39, i64 416
  %41 = getelementptr inbounds nuw i8, ptr %1, i64 48
  %42 = tail call ptr @H5O_msg_copy(i32 noundef 11, ptr noundef nonnull %40, ptr noundef nonnull %41) #7
  br label %43

43:                                               ; preds = %33, %2
  ret i32 0
}